; ModuleID = '37/1526.c'
source_filename = "37/1526.c"
target datalayout = "e-m:e-p270:32:32-p271:32:32-p272:64:64-i64:64-f80:128-n8:16:32:64-S128"
target triple = "x86_64-pc-linux-gnu"

@.str = private unnamed_addr constant [3 x i8] c"%d\00", align 1
@.str.1 = private unnamed_addr constant [4 x i8] c"%c\0A\00", align 1
@.str.2 = private unnamed_addr constant [4 x i8] c"no\0A\00", align 1

; Function Attrs: noinline nounwind uwtable
define dso_local i32 @main() #0 {
  %1 = alloca i32, align 4
  %2 = alloca i32, align 4
  %3 = alloca i32, align 4
  %4 = alloca i32, align 4
  %5 = alloca i32, align 4
  %6 = alloca i32, align 4
  %7 = alloca [10 x i8], align 1
  %8 = alloca i8*, align 8
  %9 = alloca i64, align 8
  %10 = alloca i32, align 4
  %11 = alloca i32, align 4
  %12 = alloca i8*, align 8
  %13 = alloca i64, align 8
  store i32 0, i32* %1, align 4
  %14 = call i32 (i8*, ...) @__isoc99_scanf(i8* getelementptr inbounds ([3 x i8], [3 x i8]* @.str, i64 0, i64 0), i32* %4)
  %15 = getelementptr inbounds [10 x i8], [10 x i8]* %7, i64 0, i64 0
  %16 = call i32 (i8*, ...) bitcast (i32 (...)* @gets to i32 (i8*, ...)*)(i8* %15)
  %17 = load i32, i32* %4, align 4
  %18 = zext i32 %17 to i64
  %19 = call i8* @llvm.stacksave()
  store i8* %19, i8** %8, align 8
  %20 = alloca [1000 x i8], i64 %18, align 16
  store i64 %18, i64* %9, align 8
  store i32 0, i32* %2, align 4
  br label %21

21:                                               ; preds = %31, %0
  %22 = load i32, i32* %2, align 4
  %23 = load i32, i32* %4, align 4
  %24 = icmp slt i32 %22, %23
  br i1 %24, label %25, label %34

25:                                               ; preds = %21
  %26 = load i32, i32* %2, align 4
  %27 = sext i32 %26 to i64
  %28 = getelementptr inbounds [1000 x i8], [1000 x i8]* %20, i64 %27
  %29 = getelementptr inbounds [1000 x i8], [1000 x i8]* %28, i64 0, i64 0
  %30 = call i32 (i8*, ...) bitcast (i32 (...)* @gets to i32 (i8*, ...)*)(i8* %29)
  br label %31

31:                                               ; preds = %25
  %32 = load i32, i32* %2, align 4
  %33 = add nsw i32 %32, 1
  store i32 %33, i32* %2, align 4
  br label %21

34:                                               ; preds = %21
  store i32 0, i32* %2, align 4
  br label %35

35:                                               ; preds = %142, %34
  %36 = load i32, i32* %2, align 4
  %37 = load i32, i32* %4, align 4
  %38 = icmp slt i32 %36, %37
  br i1 %38, label %39, label %145

39:                                               ; preds = %35
  store i32 0, i32* %11, align 4
  %40 = load i32, i32* %2, align 4
  %41 = sext i32 %40 to i64
  %42 = getelementptr inbounds [1000 x i8], [1000 x i8]* %20, i64 %41
  %43 = getelementptr inbounds [1000 x i8], [1000 x i8]* %42, i64 0, i64 0
  %44 = call i64 @strlen(i8* %43) #4
  %45 = trunc i64 %44 to i32
  store i32 %45, i32* %10, align 4
  %46 = load i32, i32* %10, align 4
  %47 = zext i32 %46 to i64
  %48 = call i8* @llvm.stacksave()
  store i8* %48, i8** %12, align 8
  %49 = alloca i32, i64 %47, align 16
  store i64 %47, i64* %13, align 8
  store i32 0, i32* %5, align 4
  br label %50

50:                                               ; preds = %58, %39
  %51 = load i32, i32* %5, align 4
  %52 = load i32, i32* %10, align 4
  %53 = icmp slt i32 %51, %52
  br i1 %53, label %54, label %61

54:                                               ; preds = %50
  %55 = load i32, i32* %5, align 4
  %56 = sext i32 %55 to i64
  %57 = getelementptr inbounds i32, i32* %49, i64 %56
  store i32 0, i32* %57, align 4
  br label %58

58:                                               ; preds = %54
  %59 = load i32, i32* %5, align 4
  %60 = add nsw i32 %59, 1
  store i32 %60, i32* %5, align 4
  br label %50

61:                                               ; preds = %50
  store i32 0, i32* %3, align 4
  br label %62

62:                                               ; preds = %116, %61
  %63 = load i32, i32* %3, align 4
  %64 = load i32, i32* %10, align 4
  %65 = icmp slt i32 %63, %64
  br i1 %65, label %66, label %119

66:                                               ; preds = %62
  store i32 0, i32* %6, align 4
  br label %67

67:                                               ; preds = %96, %66
  %68 = load i32, i32* %6, align 4
  %69 = load i32, i32* %10, align 4
  %70 = icmp slt i32 %68, %69
  br i1 %70, label %71, label %99

71:                                               ; preds = %67
  %72 = load i32, i32* %2, align 4
  %73 = sext i32 %72 to i64
  %74 = getelementptr inbounds [1000 x i8], [1000 x i8]* %20, i64 %73
  %75 = load i32, i32* %3, align 4
  %76 = sext i32 %75 to i64
  %77 = getelementptr inbounds [1000 x i8], [1000 x i8]* %74, i64 0, i64 %76
  %78 = load i8, i8* %77, align 1
  %79 = sext i8 %78 to i32
  %80 = load i32, i32* %2, align 4
  %81 = sext i32 %80 to i64
  %82 = getelementptr inbounds [1000 x i8], [1000 x i8]* %20, i64 %81
  %83 = load i32, i32* %6, align 4
  %84 = sext i32 %83 to i64
  %85 = getelementptr inbounds [1000 x i8], [1000 x i8]* %82, i64 0, i64 %84
  %86 = load i8, i8* %85, align 1
  %87 = sext i8 %86 to i32
  %88 = icmp eq i32 %79, %87
  br i1 %88, label %89, label %95

89:                                               ; preds = %71
  %90 = load i32, i32* %3, align 4
  %91 = sext i32 %90 to i64
  %92 = getelementptr inbounds i32, i32* %49, i64 %91
  %93 = load i32, i32* %92, align 4
  %94 = add nsw i32 %93, 1
  store i32 %94, i32* %92, align 4
  br label %95

95:                                               ; preds = %89, %71
  br label %96

96:                                               ; preds = %95
  %97 = load i32, i32* %6, align 4
  %98 = add nsw i32 %97, 1
  store i32 %98, i32* %6, align 4
  br label %67

99:                                               ; preds = %67
  %100 = load i32, i32* %3, align 4
  %101 = sext i32 %100 to i64
  %102 = getelementptr inbounds i32, i32* %49, i64 %101
  %103 = load i32, i32* %102, align 4
  %104 = icmp eq i32 %103, 1
  br i1 %104, label %105, label %115

105:                                              ; preds = %99
  %106 = load i32, i32* %2, align 4
  %107 = sext i32 %106 to i64
  %108 = getelementptr inbounds [1000 x i8], [1000 x i8]* %20, i64 %107
  %109 = load i32, i32* %3, align 4
  %110 = sext i32 %109 to i64
  %111 = getelementptr inbounds [1000 x i8], [1000 x i8]* %108, i64 0, i64 %110
  %112 = load i8, i8* %111, align 1
  %113 = sext i8 %112 to i32
  %114 = call i32 (i8*, ...) @printf(i8* getelementptr inbounds ([4 x i8], [4 x i8]* @.str.1, i64 0, i64 0), i32 %113)
  br label %119

115:                                              ; preds = %99
  br label %116

116:                                              ; preds = %115
  %117 = load i32, i32* %3, align 4
  %118 = add nsw i32 %117, 1
  store i32 %118, i32* %3, align 4
  br label %62

119:                                              ; preds = %105, %62
  store i32 0, i32* %5, align 4
  br label %120

120:                                              ; preds = %132, %119
  %121 = load i32, i32* %5, align 4
  %122 = load i32, i32* %10, align 4
  %123 = icmp slt i32 %121, %122
  br i1 %123, label %124, label %135

124:                                              ; preds = %120
  %125 = load i32, i32* %5, align 4
  %126 = sext i32 %125 to i64
  %127 = getelementptr inbounds i32, i32* %49, i64 %126
  %128 = load i32, i32* %127, align 4
  %129 = icmp eq i32 %128, 1
  br i1 %129, label %130, label %131

130:                                              ; preds = %124
  store i32 1, i32* %11, align 4
  br label %131

131:                                              ; preds = %130, %124
  br label %132

132:                                              ; preds = %131
  %133 = load i32, i32* %5, align 4
  %134 = add nsw i32 %133, 1
  store i32 %134, i32* %5, align 4
  br label %120

135:                                              ; preds = %120
  %136 = load i32, i32* %11, align 4
  %137 = icmp eq i32 %136, 0
  br i1 %137, label %138, label %140

138:                                              ; preds = %135
  %139 = call i32 (i8*, ...) @printf(i8* getelementptr inbounds ([4 x i8], [4 x i8]* @.str.2, i64 0, i64 0))
  br label %140

140:                                              ; preds = %138, %135
  %141 = load i8*, i8** %12, align 8
  call void @llvm.stackrestore(i8* %141)
  br label %142

142:                                              ; preds = %140
  %143 = load i32, i32* %2, align 4
  %144 = add nsw i32 %143, 1
  store i32 %144, i32* %2, align 4
  br label %35

145:                                              ; preds = %35
  %146 = load i32, i32* %4, align 4
  %147 = call i32 (i8*, ...) @__isoc99_scanf(i8* getelementptr inbounds ([3 x i8], [3 x i8]* @.str, i64 0, i64 0), i32 %146)
  store i32 0, i32* %1, align 4
  %148 = load i8*, i8** %8, align 8
  call void @llvm.stackrestore(i8* %148)
  %149 = load i32, i32* %1, align 4
  ret i32 %149
}

declare dso_local i32 @__isoc99_scanf(i8*, ...) #1

declare dso_local i32 @gets(...) #1

; Function Attrs: nounwind
declare i8* @llvm.stacksave() #2

; Function Attrs: nounwind readonly
declare dso_local i64 @strlen(i8*) #3

declare dso_local i32 @printf(i8*, ...) #1

; Function Attrs: nounwind
declare void @llvm.stackrestore(i8*) #2


!llvm.module.flags = !{!0}
!llvm.ident = !{!1}

!0 = !{i32 1, !"wchar_size", i32 4}
!1 = !{!"clang version 10.0.0-4ubuntu1 "}
